(dp0
S'cpu_usage'
p1
(lp2
(lp3
S'20-03-2020 (13:46:23.120955)'
p4
aF1.9899999999999998
aa(lp5
S'20-03-2020 (13:59:43.864569)'
p6
aF1.0
aa(lp7
S'20-03-2020 (14:20:00.605428)'
p8
aF1.9899999999999998
aa(lp9
S'20-03-2020 (14:49:30.660770)'
p10
aF2.0
aa(lp11
S'20-03-2020 (15:28:33.532941)'
p12
aF1.0
aa(lp13
S'20-03-2020 (16:17:14.753731)'
p14
aF1.0
aa(lp15
S'20-03-2020 (17:14:24.541994)'
p16
aF2.0
aa(lp17
S'20-03-2020 (18:24:41.267325)'
p18
aF1.0
aa(lp19
S'20-03-2020 (19:43:52.216097)'
p20
aF1.0
aa(lp21
S'20-03-2020 (21:13:18.360999)'
p22
aF1.0
aa(lp23
S'20-03-2020 (22:51:28.163831)'
p24
aF0.0
aa(lp25
S'21-03-2020 (00:44:55.221472)'
p26
aF0.0
aa(lp27
S'21-03-2020 (02:49:25.167024)'
p28
aF0.0
aa(lp29
S'21-03-2020 (05:03:01.446977)'
p30
aF1.0
aa(lp31
S'21-03-2020 (07:28:34.201500)'
p32
aF1.0
aa(lp33
S'21-03-2020 (10:04:49.993925)'
p34
aF11.95
aa(lp35
S'21-03-2020 (12:51:58.796885)'
p36
aF1.0
aa(lp37
S'21-03-2020 (15:52:14.333767)'
p38
aF0.0
aa(lp39
S'21-03-2020 (18:57:59.960977)'
p40
aF0.99
aa(lp41
S'21-03-2020 (22:20:38.018931)'
p42
aF1.0
aas.