(dp0
S'cpu_usage'
p1
(lp2
(lp3
S'10-02-2020 (10:38:26.460737)'
p4
aF1.98
aa(lp5
S'10-02-2020 (11:04:12.736909)'
p6
aF1.0
aa(lp7
S'10-02-2020 (11:31:44.214334)'
p8
aF10.95
aa(lp9
S'10-02-2020 (11:59:31.760343)'
p10
aF2.9799999999999995
aa(lp11
S'10-02-2020 (12:27:56.444301)'
p12
aF0.99
aa(lp13
S'10-02-2020 (12:56:08.409952)'
p14
aF1.98
aa(lp15
S'10-02-2020 (13:24:45.237465)'
p16
aF1.0
aa(lp17
S'10-02-2020 (13:54:09.668461)'
p18
aF1.9899999999999998
aa(lp19
S'10-02-2020 (14:23:04.063187)'
p20
aF9.940000000000001
aa(lp21
S'10-02-2020 (14:52:57.735039)'
p22
aF0.99
aa(lp23
S'10-02-2020 (15:21:44.854447)'
p24
aF56.71
aa(lp25
S'10-02-2020 (15:50:32.686170)'
p26
aF0.0
aa(lp27
S'10-02-2020 (16:20:38.189566)'
p28
aF1.9899999999999998
aa(lp29
S'10-02-2020 (16:50:17.140470)'
p30
aF4.9799999999999995
aa(lp31
S'10-02-2020 (17:20:13.674966)'
p32
aF2.9799999999999995
aa(lp33
S'10-02-2020 (17:49:34.494931)'
p34
aF11.940000000000001
aa(lp35
S'10-02-2020 (18:18:25.815341)'
p36
aF1.0
aa(lp37
S'10-02-2020 (18:47:21.756342)'
p38
aF1.0
aa(lp39
S'10-02-2020 (19:16:36.043275)'
p40
aF0.99
aa(lp41
S'10-02-2020 (19:45:44.765120)'
p42
aF12.939999999999998
aa(lp43
S'10-02-2020 (20:11:51.372216)'
p44
aF0.99
aa(lp45
S'10-02-2020 (20:40:38.484162)'
p46
aF4.959999999999999
aa(lp47
S'10-02-2020 (21:09:08.199849)'
p48
aF4.970000000000001
aa(lp49
S'10-02-2020 (21:37:59.739606)'
p50
aF0.99
aa(lp51
S'10-02-2020 (22:06:56.899763)'
p52
aF11.940000000000001
aa(lp53
S'10-02-2020 (22:36:51.676375)'
p54
aF0.0
aa(lp55
S'10-02-2020 (23:08:28.722473)'
p56
aF3.9899999999999998
aa(lp57
S'10-02-2020 (23:37:50.838705)'
p58
aF6.959999999999999
aa(lp59
S'11-02-2020 (00:07:12.105203)'
p60
aF1.0
aa(lp61
S'11-02-2020 (00:34:32.059010)'
p62
aF1.9899999999999998
aa(lp63
S'11-02-2020 (01:02:50.538681)'
p64
aF2.9899999999999998
aa(lp65
S'11-02-2020 (01:30:26.045049)'
p66
aF0.99
aa(lp67
S'11-02-2020 (01:58:26.258264)'
p68
aF0.0
aa(lp69
S'11-02-2020 (02:26:05.212938)'
p70
aF1.0
aa(lp71
S'11-02-2020 (02:52:28.854313)'
p72
aF2.9899999999999998
aa(lp73
S'11-02-2020 (03:17:21.813036)'
p74
aF2.0
aa(lp75
S'11-02-2020 (03:41:20.839586)'
p76
aF3.9899999999999998
aa(lp77
S'11-02-2020 (04:05:31.091009)'
p78
aF4.9799999999999995
aa(lp79
S'11-02-2020 (04:30:36.867365)'
p80
aF2.9799999999999995
aa(lp81
S'11-02-2020 (04:57:11.953388)'
p82
aF33.85
aa(lp83
S'11-02-2020 (05:23:16.460545)'
p84
aF3.9699999999999998
aa(lp85
S'11-02-2020 (05:49:09.530095)'
p86
aF1.0
aa(lp87
S'11-02-2020 (06:15:22.650256)'
p88
aF2.9799999999999995
aa(lp89
S'11-02-2020 (06:41:25.830961)'
p90
aF2.9899999999999998
aa(lp91
S'11-02-2020 (07:08:02.890795)'
p92
aF1.9899999999999998
aa(lp93
S'11-02-2020 (07:34:15.192093)'
p94
aF2.0
aa(lp95
S'11-02-2020 (08:00:34.897516)'
p96
aF0.99
aa(lp97
S'11-02-2020 (08:27:25.934142)'
p98
aF1.0
aa(lp99
S'11-02-2020 (08:54:31.928017)'
p100
aF33.82
aa(lp101
S'11-02-2020 (09:21:32.362821)'
p102
aF5.9799999999999995
aa(lp103
S'11-02-2020 (09:48:17.643366)'
p104
aF0.99
aa(lp105
S'11-02-2020 (10:16:28.934726)'
p106
aF9.940000000000001
aa(lp107
S'11-02-2020 (10:43:48.504500)'
p108
aF7.970000000000001
aa(lp109
S'11-02-2020 (11:11:13.323350)'
p110
aF2.9799999999999995
aa(lp111
S'11-02-2020 (11:38:42.093720)'
p112
aF1.0
aa(lp113
S'11-02-2020 (12:06:19.028285)'
p114
aF40.8
aa(lp115
S'11-02-2020 (12:33:58.268281)'
p116
aF1.0
aa(lp117
S'11-02-2020 (13:00:41.498444)'
p118
aF33.85
aa(lp119
S'11-02-2020 (13:27:28.038331)'
p120
aF3.9799999999999995
aa(lp121
S'11-02-2020 (13:54:09.722868)'
p122
aF13.959999999999999
aa(lp123
S'11-02-2020 (14:19:51.958312)'
p124
aF6.969999999999999
aa(lp125
S'11-02-2020 (14:45:50.790146)'
p126
aF1.0
aa(lp127
S'11-02-2020 (15:11:25.289536)'
p128
aF0.0
aa(lp129
S'11-02-2020 (15:37:16.523557)'
p130
aF1.0
aa(lp131
S'11-02-2020 (16:06:06.110564)'
p132
aF0.0
aa(lp133
S'11-02-2020 (16:34:38.111027)'
p134
aF5.970000000000001
aa(lp135
S'11-02-2020 (17:01:06.281401)'
p136
aF1.0
aa(lp137
S'11-02-2020 (17:27:44.480128)'
p138
aF4.9799999999999995
aa(lp139
S'11-02-2020 (17:59:34.933128)'
p140
aF5.9799999999999995
aa(lp141
S'11-02-2020 (18:26:17.207047)'
p142
aF0.0
aa(lp143
S'11-02-2020 (18:54:21.045578)'
p144
aF1.0
aa(lp145
S'11-02-2020 (19:23:23.480178)'
p146
aF1.0
aa(lp147
S'11-02-2020 (19:51:44.191750)'
p148
aF1.0
aa(lp149
S'11-02-2020 (20:18:53.583480)'
p150
aF0.99
aa(lp151
S'11-02-2020 (20:46:31.714618)'
p152
aF3.9799999999999995
aa(lp153
S'11-02-2020 (21:13:51.332897)'
p154
aF0.0
aa(lp155
S'11-02-2020 (21:39:42.009660)'
p156
aF0.0
aa(lp157
S'11-02-2020 (22:06:22.209966)'
p158
aF2.9799999999999995
aa(lp159
S'11-02-2020 (22:37:34.374025)'
p160
aF2.9899999999999998
aa(lp161
S'11-02-2020 (23:06:37.003218)'
p162
aF0.99
aa(lp163
S'11-02-2020 (23:35:54.375809)'
p164
aF1.9899999999999998
aa(lp165
S'12-02-2020 (00:04:59.529827)'
p166
aF31.869999999999997
aa(lp167
S'12-02-2020 (00:33:17.681512)'
p168
aF2.0
aa(lp169
S'12-02-2020 (01:01:27.813365)'
p170
aF35.839999999999996
aa(lp171
S'12-02-2020 (01:30:37.628806)'
p172
aF1.9899999999999998
aa(lp173
S'12-02-2020 (01:57:30.687881)'
p174
aF1.9899999999999998
aa(lp175
S'12-02-2020 (02:25:14.729823)'
p176
aF1.0
aa(lp177
S'12-02-2020 (02:52:56.301106)'
p178
aF2.9799999999999995
aa(lp179
S'12-02-2020 (03:22:42.094853)'
p180
aF8.969999999999999
aa(lp181
S'12-02-2020 (03:50:30.163009)'
p182
aF3.9799999999999995
aa(lp183
S'12-02-2020 (04:17:42.795799)'
p184
aF1.0
aa(lp185
S'12-02-2020 (04:45:11.263900)'
p186
aF28.890000000000004
aa(lp187
S'12-02-2020 (05:13:55.365867)'
p188
aF3.9799999999999995
aa(lp189
S'12-02-2020 (05:44:18.331425)'
p190
aF4.970000000000001
aa(lp191
S'12-02-2020 (06:11:12.300991)'
p192
aF13.95
aa(lp193
S'12-02-2020 (06:38:29.443957)'
p194
aF1.0
aa(lp195
S'12-02-2020 (07:05:23.413852)'
p196
aF0.0
aa(lp197
S'12-02-2020 (07:33:47.288422)'
p198
aF47.76
aa(lp199
S'12-02-2020 (08:02:07.038977)'
p200
aF2.9899999999999998
aa(lp201
S'12-02-2020 (08:30:37.974995)'
p202
aF1.0
aas.