(dp0
S'memory_usage'
p1
(lp2
(lp3
S'10-02-2020 (10:38:26.460737)'
p4
a(dp5
S'available'
p6
I13090934784
sS'used'
p7
I3012825088
sS'cached'
p8
I3464740864
sS'percent'
p9
F21.2
sS'free'
p10
I10142162944
sS'inactive'
p11
I2745368576
sS'active'
p12
I2924478464
sS'shared'
p13
I173416448
sS'total'
p14
I16619749376
sS'slab'
p15
I477888512
sS'buffers'
p16
I20480
saa(lp17
S'10-02-2020 (11:04:12.736909)'
p18
a(dp19
g6
I13057323008
sg7
I3046461440
sg8
I4930048000
sg9
F21.4
sg10
I8643219456
sg11
I3816558592
sg12
I3328229376
sg13
I173391872
sg14
I16619749376
sg15
I504799232
sg16
I20480
saa(lp20
S'10-02-2020 (11:31:44.214334)'
p21
a(dp22
g6
I13056020480
sg7
I3047751680
sg8
I6470742016
sg9
F21.4
sg10
I7101235200
sg11
I4927725568
sg12
I3723272192
sg13
I173404160
sg14
I16619749376
sg15
I539713536
sg16
I20480
saa(lp23
S'10-02-2020 (11:59:31.760343)'
p24
a(dp25
g6
I13056319488
sg7
I3047448576
sg8
I7905878016
sg9
F21.4
sg10
I5666402304
sg11
I5948727296
sg12
I4092223488
sg13
I173408256
sg14
I16619749376
sg15
I585056256
sg16
I20480
saa(lp26
S'10-02-2020 (12:27:56.444301)'
p27
a(dp28
g6
I13064028160
sg7
I3039719424
sg8
I9048662016
sg9
F21.4
sg10
I4531347456
sg11
I6749057024
sg12
I4376346624
sg13
I173428736
sg14
I16619749376
sg15
I633749504
sg16
I20480
saa(lp29
S'10-02-2020 (12:56:08.409952)'
p30
a(dp31
g6
I13050589184
sg7
I3053154304
sg8
I11025862656
sg9
F21.5
sg10
I2540711936
sg11
I7835967488
sg12
I5231640576
sg13
I173432832
sg14
I16619749376
sg15
I682287104
sg16
I20480
saa(lp32
S'10-02-2020 (13:24:45.237465)'
p33
a(dp34
g6
I13060915200
sg7
I3042816000
sg8
I12117835776
sg9
F21.4
sg10
I1459077120
sg11
I8934719488
sg12
I5178253312
sg13
I173445120
sg14
I16619749376
sg15
I719671296
sg16
I20480
saa(lp35
S'10-02-2020 (13:54:09.668461)'
p36
a(dp37
g6
I13081288704
sg7
I3022438400
sg8
I13202558976
sg9
F21.3
sg10
I394731520
sg11
I9817563136
sg12
I5321605120
sg13
I173449216
sg14
I16619749376
sg15
I756199424
sg16
I20480
saa(lp38
S'10-02-2020 (14:23:04.063187)'
p39
a(dp40
g6
I13062414336
sg7
I3041308672
sg8
I12757524480
sg9
F21.4
sg10
I820895744
sg11
I9102151680
sg12
I5588115456
sg13
I173453312
sg14
I16619749376
sg15
I780632064
sg16
I20480
saa(lp41
S'10-02-2020 (14:52:57.735039)'
p42
a(dp43
g6
I13071269888
sg7
I3032453120
sg8
I12015460352
sg9
F21.4
sg10
I1571815424
sg11
I7950831616
sg12
I5980381184
sg13
I173453312
sg14
I16619749376
sg15
I786317312
sg16
I20480
saa(lp44
S'10-02-2020 (15:21:44.854447)'
p45
a(dp46
g6
I13072355328
sg7
I3030630400
sg8
I8417615872
sg9
F21.3
sg10
I5171482624
sg11
I5230669824
sg12
I5099724800
sg13
I173453312
sg14
I16619749376
sg15
I789856256
sg16
I20480
saa(lp47
S'10-02-2020 (15:50:32.686170)'
p48
a(dp49
g6
I13106339840
sg7
I2997383168
sg8
I9622777856
sg9
F21.1
sg10
I3999567872
sg11
I6182526976
sg12
I5301391360
sg13
I173453312
sg14
I16619749376
sg15
I807260160
sg16
I20480
saa(lp50
S'10-02-2020 (16:20:38.189566)'
p51
a(dp52
g6
I13082570752
sg7
I3021148160
sg8
I11005239296
sg9
F21.3
sg10
I2593341440
sg11
I7182024704
sg12
I5680087040
sg13
I173457408
sg14
I16619749376
sg15
I834826240
sg16
I20480
saa(lp53
S'10-02-2020 (16:50:17.140470)'
p54
a(dp55
g6
I13073670144
sg7
I3030044672
sg8
I12461256704
sg9
F21.3
sg10
I1128427520
sg11
I8227655680
sg12
I6054363136
sg13
I173461504
sg14
I16619749376
sg15
I879304704
sg16
I20480
saa(lp56
S'10-02-2020 (17:20:13.674966)'
p57
a(dp58
g6
I13066506240
sg7
I3037196288
sg8
I12347031552
sg9
F21.4
sg10
I1235509248
sg11
I7808450560
sg12
I6359556096
sg13
I173473792
sg14
I16619749376
sg15
I886300672
sg16
I12288
saa(lp59
S'10-02-2020 (17:49:34.494931)'
p60
a(dp61
g6
I13069299712
sg7
I3034402816
sg8
I13013647360
sg9
F21.4
sg10
I571686912
sg11
I7576756224
sg12
I7253344256
sg13
I173473792
sg14
I16619749376
sg15
I889745408
sg16
I12288
saa(lp62
S'10-02-2020 (18:18:25.815341)'
p63
a(dp64
g6
I13090910208
sg7
I3012784128
sg8
I12118638592
sg9
F21.2
sg10
I1488314368
sg11
I6900781056
sg12
I7018037248
sg13
I173481984
sg14
I16619749376
sg15
I884764672
sg16
I12288
saa(lp65
S'10-02-2020 (18:47:21.756342)'
p66
a(dp67
g6
I13077053440
sg7
I3026640896
sg8
I13015830528
sg9
F21.3
sg10
I577265664
sg11
I7393443840
sg12
I7424954368
sg13
I173481984
sg14
I16619749376
sg15
I896122880
sg16
I12288
saa(lp68
S'10-02-2020 (19:16:36.043275)'
p69
a(dp70
g6
I13098168320
sg7
I3005521920
sg8
I10664763392
sg9
F21.2
sg10
I2949451776
sg11
I6807666688
sg12
I5719543808
sg13
I173486080
sg14
I16619749376
sg15
I830423040
sg16
I12288
saa(lp71
S'10-02-2020 (19:45:44.765120)'
p72
a(dp73
g6
I13105147904
sg7
I2998542336
sg8
I11692367872
sg9
F21.1
sg10
I1928826880
sg11
I7927496704
sg12
I5601292288
sg13
I173486080
sg14
I16619749376
sg15
I849203200
sg16
I12288
saa(lp74
S'10-02-2020 (20:11:51.372216)'
p75
a(dp76
g6
I13097095168
sg7
I3006595072
sg8
I12455350272
sg9
F21.2
sg10
I1157791744
sg11
I8387547136
sg12
I5881909248
sg13
I173486080
sg14
I16619749376
sg15
I881086464
sg16
I12288
saa(lp77
S'10-02-2020 (20:40:38.484162)'
p78
a(dp79
g6
I13143703552
sg7
I2959982592
sg8
I13431193600
sg9
F20.9
sg10
I228560896
sg11
I8695775232
sg12
I6492905472
sg13
I173490176
sg14
I16619749376
sg15
I898347008
sg16
I12288
saa(lp80
S'10-02-2020 (21:09:08.199849)'
p81
a(dp82
g6
I13108211712
sg7
I2995470336
sg8
I13329293312
sg9
F21.1
sg10
I294973440
sg11
I8524042240
sg12
I6602100736
sg13
I173494272
sg14
I16619749376
sg15
I905359360
sg16
I12288
saa(lp83
S'10-02-2020 (21:37:59.739606)'
p84
a(dp85
g6
I13118681088
sg7
I2984992768
sg8
I13228199936
sg9
F21.1
sg10
I406544384
sg11
I7883386880
sg12
I7149555712
sg13
I173502464
sg14
I16619749376
sg15
I895799296
sg16
I12288
saa(lp86
S'10-02-2020 (22:06:56.899763)'
p87
a(dp88
g6
I13132918784
sg7
I2970742784
sg8
I13030170624
sg9
F21.0
sg10
I618823680
sg11
I7587164160
sg12
I7242792960
sg13
I173514752
sg14
I16619749376
sg15
I888922112
sg16
I12288
saa(lp89
S'10-02-2020 (22:36:51.676375)'
p90
a(dp91
g6
I13146914816
sg7
I2956742656
sg8
I13407395840
sg9
F20.9
sg10
I255598592
sg11
I7334080512
sg12
I7870836736
sg13
I173518848
sg14
I16619749376
sg15
I880222208
sg16
I12288
saa(lp92
S'10-02-2020 (23:08:28.722473)'
p93
a(dp94
g6
I13175390208
sg7
I2928582656
sg8
I8369688576
sg9
F20.7
sg10
I5321465856
sg11
I4759150592
sg12
I5537628160
sg13
I173203456
sg14
I16619749376
sg15
I754237440
sg16
I12288
saa(lp95
S'10-02-2020 (23:37:50.838705)'
p96
a(dp97
g6
I13192278016
sg7
I2911694848
sg8
I10148413440
sg9
F20.6
sg10
I3559628800
sg11
I6072397824
sg12
I5963800576
sg13
I173203456
sg14
I16619749376
sg15
I776830976
sg16
I12288
saa(lp98
S'11-02-2020 (00:07:12.105203)'
p99
a(dp100
g6
I13169889280
sg7
I2934083584
sg8
I11624783872
sg9
F20.8
sg10
I2060869632
sg11
I7156027392
sg12
I6357184512
sg13
I173203456
sg14
I16619749376
sg15
I798982144
sg16
I12288
saa(lp101
S'11-02-2020 (00:34:32.059010)'
p102
a(dp103
g6
I13175021568
sg7
I2928951296
sg8
I13404749824
sg9
F20.7
sg10
I286035968
sg11
I8207597568
sg12
I7052173312
sg13
I173203456
sg14
I16619749376
sg15
I826015744
sg16
I12288
saa(lp104
S'11-02-2020 (01:02:50.538681)'
p105
a(dp106
g6
I13170364416
sg7
I2933035008
sg8
I13503836160
sg9
F20.8
sg10
I182865920
sg11
I7884603392
sg12
I7478226944
sg13
I173203456
sg14
I16619749376
sg15
I824176640
sg16
I12288
saa(lp107
S'11-02-2020 (01:30:26.045049)'
p108
a(dp109
g6
I13177163776
sg7
I2926809088
sg8
I12953526272
sg9
F20.7
sg10
I739401728
sg11
I7537586176
sg12
I7261143040
sg13
I173203456
sg14
I16619749376
sg15
I836202496
sg16
I12288
saa(lp110
S'11-02-2020 (01:58:26.258264)'
p111
a(dp112
g6
I13173075968
sg7
I2931113984
sg8
I13054693376
sg9
F20.7
sg10
I633929728
sg11
I7229521920
sg12
I7674699776
sg13
I172986368
sg14
I16619749376
sg15
I833634304
sg16
I12288
saa(lp113
S'11-02-2020 (02:26:05.212938)'
p114
a(dp115
g6
I13173600256
sg7
I2930745344
sg8
I12577624064
sg9
F20.7
sg10
I1111367680
sg11
I7212142592
sg12
I7218245632
sg13
I172830720
sg14
I16619749376
sg15
I834043904
sg16
I12288
saa(lp116
S'11-02-2020 (02:52:28.854313)'
p117
a(dp118
g6
I13184299008
sg7
I2922004480
sg8
I8922730496
sg9
F20.7
sg10
I4775002112
sg11
I5071826944
sg12
I5776445440
sg13
I170557440
sg14
I16619749376
sg15
I758763520
sg16
I12288
saa(lp119
S'11-02-2020 (03:17:21.813036)'
p120
a(dp121
g6
I13088874496
sg7
I3017740288
sg8
I10027585536
sg9
F21.2
sg10
I3574403072
sg11
I6163808256
sg12
I5740417024
sg13
I170561536
sg14
I16619749376
sg15
I811921408
sg16
I20480
saa(lp122
S'11-02-2020 (03:41:20.839586)'
p123
a(dp124
g6
I13076418560
sg7
I3030196224
sg8
I11270299648
sg9
F21.3
sg10
I2319233024
sg11
I7078567936
sg12
I6051037184
sg13
I170561536
sg14
I16619749376
sg15
I839548928
sg16
I20480
saa(lp125
S'11-02-2020 (04:05:31.091009)'
p126
a(dp127
g6
I13093998592
sg7
I3012603904
sg8
I13227032576
sg9
F21.2
sg10
I380092416
sg11
I8133259264
sg12
I6902509568
sg13
I170573824
sg14
I16619749376
sg15
I872603648
sg16
I20480
saa(lp128
S'11-02-2020 (04:30:36.867365)'
p129
a(dp130
g6
I13095739392
sg7
I3010727936
sg8
I13377630208
sg9
F21.2
sg10
I231370752
sg11
I7497670656
sg12
I7701643264
sg13
I170573824
sg14
I16619749376
sg15
I858021888
sg16
I20480
saa(lp131
S'11-02-2020 (04:57:11.953388)'
p132
a(dp133
g6
I13073973248
sg7
I3032211456
sg8
I13283844096
sg9
F21.3
sg10
I303673344
sg11
I7601205248
sg12
I7543660544
sg13
I170573824
sg14
I16619749376
sg15
I843620352
sg16
I20480
saa(lp134
S'11-02-2020 (05:23:16.460545)'
p135
a(dp136
g6
I13082906624
sg7
I3023642624
sg8
I12305494016
sg9
F21.3
sg10
I1290592256
sg11
I7160979456
sg12
I7033344000
sg13
I170577920
sg14
I16619749376
sg15
I809816064
sg16
I20480
saa(lp137
S'11-02-2020 (05:49:09.530095)'
p138
a(dp139
g6
I13115490304
sg7
I2991108096
sg8
I12207013888
sg9
F21.1
sg10
I1421606912
sg11
I6966800384
sg12
I7103930368
sg13
I170577920
sg14
I16619749376
sg15
I801447936
sg16
I20480
saa(lp140
S'11-02-2020 (06:15:22.650256)'
p141
a(dp142
g6
I13093793792
sg7
I3014373376
sg8
I9907064832
sg9
F21.2
sg10
I3698290688
sg11
I5112762368
sg12
I6782648320
sg13
I168730624
sg14
I16619749376
sg15
I700325888
sg16
I20480
saa(lp143
S'11-02-2020 (06:41:25.830961)'
p144
a(dp145
g6
I13090881536
sg7
I3017555968
sg8
I11929612288
sg9
F21.2
sg10
I1672560640
sg11
I7145598976
sg12
I6748766208
sg13
I168738816
sg14
I16619749376
sg15
I727322624
sg16
I20480
saa(lp146
S'11-02-2020 (07:08:02.890795)'
p147
a(dp148
g6
I13074984960
sg7
I3033399296
sg8
I13434273792
sg9
F21.3
sg10
I152055808
sg11
I8033898496
sg12
I7361630208
sg13
I168747008
sg14
I16619749376
sg15
I745136128
sg16
I20480
saa(lp149
S'11-02-2020 (07:34:15.192093)'
p150
a(dp151
g6
I13121478656
sg7
I2986946560
sg8
I13480054784
sg9
F21.0
sg10
I152735744
sg11
I7776178176
sg12
I7617032192
sg13
I168751104
sg14
I16619749376
sg15
I750202880
sg16
I12288
saa(lp152
S'11-02-2020 (08:00:34.897516)'
p153
a(dp154
g6
I13087830016
sg7
I3020591104
sg8
I13057597440
sg9
F21.3
sg10
I541548544
sg11
I7602585600
sg12
I7404138496
sg13
I168755200
sg14
I16619749376
sg15
I745885696
sg16
I12288
saa(lp155
S'11-02-2020 (08:27:25.934142)'
p156
a(dp157
g6
I13092937728
sg7
I3015483392
sg8
I12066594816
sg9
F21.2
sg10
I1537658880
sg11
I6839984128
sg12
I7175696384
sg13
I168755200
sg14
I16619749376
sg15
I742916096
sg16
I12288
saa(lp158
S'11-02-2020 (08:54:31.928017)'
p159
a(dp160
g6
I13122412544
sg7
I2985451520
sg8
I13466935296
sg9
F21.0
sg10
I167350272
sg11
I7268089856
sg12
I8192458752
sg13
I168759296
sg14
I16619749376
sg15
I695808000
sg16
I12288
saa(lp161
S'11-02-2020 (09:21:32.362821)'
p162
a(dp163
g6
I13151657984
sg7
I2956447744
sg8
I10513186816
sg9
F20.9
sg10
I3150102528
sg11
I6340202496
sg12
I6145826816
sg13
I168759296
sg14
I16619749376
sg15
I704008192
sg16
I12288
saa(lp164
S'11-02-2020 (09:48:17.643366)'
p165
a(dp166
g6
I13137104896
sg7
I2971312128
sg8
I12246863872
sg9
F21.0
sg10
I1401561088
sg11
I7691091968
sg12
I6518484992
sg13
I168759296
sg14
I16619749376
sg15
I727699456
sg16
I12288
saa(lp167
S'11-02-2020 (10:16:28.934726)'
p168
a(dp169
g6
I13137555456
sg7
I2970861568
sg8
I12783640576
sg9
F21.0
sg10
I865234944
sg11
I7758176256
sg12
I6977368064
sg13
I168759296
sg14
I16619749376
sg15
I740642816
sg16
I12288
saa(lp170
S'11-02-2020 (10:43:48.504500)'
p171
a(dp172
g6
I13161537536
sg7
I2946879488
sg8
I12034969600
sg9
F20.8
sg10
I1637888000
sg11
I6880788480
sg12
I7108730880
sg13
I168759296
sg14
I16619749376
sg15
I728387584
sg16
I12288
saa(lp173
S'11-02-2020 (11:11:13.323350)'
p174
a(dp175
g6
I13190156288
sg7
I2917908480
sg8
I8193417216
sg9
F20.6
sg10
I5508411392
sg11
I4589907968
sg12
I5590614016
sg13
I168767488
sg14
I16619749376
sg15
I688095232
sg16
I12288
saa(lp176
S'11-02-2020 (11:38:42.093720)'
p177
a(dp178
g6
I13173776384
sg7
I2934624256
sg8
I11443875840
sg9
F20.7
sg10
I2241236992
sg11
I6771212288
sg12
I6632419328
sg13
I168775680
sg14
I16619749376
sg15
I710098944
sg16
I12288
saa(lp179
S'11-02-2020 (12:06:19.028285)'
p180
a(dp181
g6
I13191610368
sg7
I2916646912
sg8
I13484433408
sg9
F20.6
sg10
I218656768
sg11
I8445263872
sg12
I6949777408
sg13
I168792064
sg14
I16619749376
sg15
I740315136
sg16
I12288
saa(lp182
S'11-02-2020 (12:33:58.268281)'
p183
a(dp184
g6
I13172649984
sg7
I2935730176
sg8
I12826292224
sg9
F20.7
sg10
I857714688
sg11
I7624814592
sg12
I7126601728
sg13
I168796160
sg14
I16619749376
sg15
I746860544
sg16
I12288
saa(lp185
S'11-02-2020 (13:00:41.498444)'
p186
a(dp187
g6
I13201555456
sg7
I2906783744
sg8
I13504782336
sg9
F20.6
sg10
I208171008
sg11
I7548055552
sg12
I7856009216
sg13
I168804352
sg14
I16619749376
sg15
I742612992
sg16
I12288
saa(lp188
S'11-02-2020 (13:27:28.038331)'
p189
a(dp190
g6
I13161242624
sg7
I2947125248
sg8
I13447622656
sg9
F20.8
sg10
I224989184
sg11
I7904354304
sg12
I7473827840
sg13
I168808448
sg14
I16619749376
sg15
I752893952
sg16
I12288
saa(lp191
S'11-02-2020 (13:54:09.722868)'
p192
a(dp193
g6
I13168553984
sg7
I2939686912
sg8
I13524332544
sg9
F20.8
sg10
I155717632
sg11
I7253323776
sg12
I8192147456
sg13
I168812544
sg14
I16619749376
sg15
I754700288
sg16
I12288
saa(lp194
S'11-02-2020 (14:19:51.958312)'
p195
a(dp196
g6
I13177167872
sg7
I2931195904
sg8
I9002430464
sg9
F20.7
sg10
I4686110720
sg11
I5306130432
sg12
I5654319104
sg13
I168812544
sg14
I16619749376
sg15
I712568832
sg16
I12288
saa(lp197
S'11-02-2020 (14:45:50.790146)'
p198
a(dp199
g6
I13175537664
sg7
I2932826112
sg8
I10265563136
sg9
F20.7
sg10
I3421347840
sg11
I6237278208
sg12
I5965848576
sg13
I168812544
sg14
I16619749376
sg15
I734158848
sg16
I12288
saa(lp200
S'11-02-2020 (15:11:25.289536)'
p201
a(dp202
g6
I13171716096
sg7
I2936647680
sg8
I11335839744
sg9
F20.7
sg10
I2347249664
sg11
I6984560640
sg12
I6263664640
sg13
I168812544
sg14
I16619749376
sg15
I762966016
sg16
I12288
saa(lp203
S'11-02-2020 (15:37:16.523557)'
p204
a(dp205
g6
I13167251456
sg7
I2941112320
sg8
I12600762368
sg9
F20.8
sg10
I1077862400
sg11
I7906054144
sg12
I6577135616
sg13
I168812544
sg14
I16619749376
sg15
I797372416
sg16
I12288
saa(lp206
S'11-02-2020 (16:06:06.110564)'
p207
a(dp208
g6
I13163913216
sg7
I2944438272
sg8
I12805410816
sg9
F20.8
sg10
I869888000
sg11
I7722213376
sg12
I6949277696
sg13
I168824832
sg14
I16619749376
sg15
I814977024
sg16
I12288
saa(lp209
S'11-02-2020 (16:34:38.111027)'
p210
a(dp211
g6
I13152784384
sg7
I2955419648
sg8
I13489930240
sg9
F20.9
sg10
I174387200
sg11
I7902138368
sg12
I7448326144
sg13
I168828928
sg14
I16619749376
sg15
I832274432
sg16
I12288
saa(lp212
S'11-02-2020 (17:01:06.281401)'
p213
a(dp214
g6
I13202788352
sg7
I2905550848
sg8
I12686983168
sg9
F20.6
sg10
I1027203072
sg11
I7128346624
sg12
I7365971968
sg13
I168837120
sg14
I16619749376
sg15
I834674688
sg16
I12288
saa(lp215
S'11-02-2020 (17:27:44.480128)'
p216
a(dp217
g6
I13210529792
sg7
I2897801216
sg8
I12450127872
sg9
F20.5
sg10
I1271808000
sg11
I7145058304
sg12
I7121104896
sg13
I168841216
sg14
I16619749376
sg15
I819814400
sg16
I12288
saa(lp218
S'11-02-2020 (17:59:34.933128)'
p219
a(dp220
g6
I13169070080
sg7
I2938953728
sg8
I13520072704
sg9
F20.8
sg10
I160710656
sg11
I7267680256
sg12
I8126627840
sg13
I168841216
sg14
I16619749376
sg15
I798547968
sg16
I12288
saa(lp221
S'11-02-2020 (18:26:17.207047)'
p222
a(dp223
g6
I13181153280
sg7
I2927177728
sg8
I9401348096
sg9
F20.7
sg10
I4291211264
sg11
I5778165760
sg12
I5538934784
sg13
I168845312
sg14
I16619749376
sg15
I752594944
sg16
I12288
saa(lp224
S'11-02-2020 (18:54:21.045578)'
p225
a(dp226
g6
I13177573376
sg7
I2930753536
sg8
I10715840512
sg9
F20.7
sg10
I2973143040
sg11
I6749634560
sg12
I5860831232
sg13
I168849408
sg14
I16619749376
sg15
I774950912
sg16
I12288
saa(lp227
S'11-02-2020 (19:23:23.480178)'
p228
a(dp229
g6
I13176459264
sg7
I2931863552
sg8
I11508297728
sg9
F20.7
sg10
I2179575808
sg11
I7331569664
sg12
I6046552064
sg13
I168849408
sg14
I16619749376
sg15
I801587200
sg16
I12288
saa(lp230
S'11-02-2020 (19:51:44.191750)'
p231
a(dp232
g6
I13173493760
sg7
I2934833152
sg8
I11986694144
sg9
F20.7
sg10
I1698209792
sg11
I7457386496
sg12
I6382567424
sg13
I168849408
sg14
I16619749376
sg15
I819937280
sg16
I12288
saa(lp233
S'11-02-2020 (20:18:53.583480)'
p234
a(dp235
g6
I13164986368
sg7
I2943209472
sg8
I13001936896
sg9
F20.8
sg10
I674590720
sg11
I7996481536
sg12
I6854852608
sg13
I168849408
sg14
I16619749376
sg15
I831438848
sg16
I12288
saa(lp236
S'11-02-2020 (20:46:31.714618)'
p237
a(dp238
g6
I13194706944
sg7
I2913488896
sg8
I13413142528
sg9
F20.6
sg10
I293105664
sg11
I8013471744
sg12
I7223021568
sg13
I168849408
sg14
I16619749376
sg15
I827142144
sg16
I12288
saa(lp239
S'11-02-2020 (21:13:51.332897)'
p240
a(dp241
g6
I13171691520
sg7
I2936627200
sg8
I12212846592
sg9
F20.7
sg10
I1470263296
sg11
I6991364096
sg12
I7096586240
sg13
I168857600
sg14
I16619749376
sg15
I802635776
sg16
I12288
saa(lp242
S'11-02-2020 (21:39:42.009660)'
p243
a(dp244
g6
I13196554240
sg7
I2911752192
sg8
I12340920320
sg9
F20.6
sg10
I1367064576
sg11
I7229648896
sg12
I6963527680
sg13
I168869888
sg14
I16619749376
sg15
I801529856
sg16
I12288
saa(lp245
S'11-02-2020 (22:06:22.209966)'
p246
a(dp247
g6
I13180817408
sg7
I2927267840
sg8
I13534269440
sg9
F20.7
sg10
I158199808
sg11
I7721558016
sg12
I7667970048
sg13
I168873984
sg14
I16619749376
sg15
I811200512
sg16
I12288
saa(lp248
S'11-02-2020 (22:37:34.374025)'
p249
a(dp250
g6
I13199757312
sg7
I2909622272
sg8
I13473652736
sg9
F20.6
sg10
I236462080
sg11
I7356223488
sg12
I8133816320
sg13
I167383040
sg14
I16619749376
sg15
I639369216
sg16
I12288
saa(lp251
S'11-02-2020 (23:06:37.003218)'
p252
a(dp253
g6
I13208248320
sg7
I2901544960
sg8
I9291599872
sg9
F20.5
sg10
I4426592256
sg11
I5447696384
sg12
I5860474880
sg13
I167383040
sg14
I16619749376
sg15
I644751360
sg16
I12288
saa(lp254
S'11-02-2020 (23:35:54.375809)'
p255
a(dp256
g6
I13219688448
sg7
I2890100736
sg8
I11334057984
sg9
F20.5
sg10
I2395578368
sg11
I6927704064
sg12
I6387449856
sg13
I167387136
sg14
I16619749376
sg15
I669466624
sg16
I12288
saa(lp257
S'12-02-2020 (00:04:59.529827)'
p258
a(dp259
g6
I13214105600
sg7
I2895929344
sg8
I13547548672
sg9
F20.5
sg10
I176259072
sg11
I8201052160
sg12
I7308537856
sg13
I167387136
sg14
I16619749376
sg15
I693489664
sg16
I12288
saa(lp260
S'12-02-2020 (00:33:17.681512)'
p261
a(dp262
g6
I13206360064
sg7
I2903425024
sg8
I12107018240
sg9
F20.5
sg10
I1609293824
sg11
I6907154432
sg12
I7162241024
sg13
I167391232
sg14
I16619749376
sg15
I701378560
sg16
I12288
saa(lp263
S'12-02-2020 (01:01:27.813365)'
p264
a(dp265
g6
I13204893696
sg7
I2906271744
sg8
I13555666944
sg9
F20.5
sg10
I157798400
sg11
I7285215232
sg12
I8232132608
sg13
I165924864
sg14
I16619749376
sg15
I696692736
sg16
I12288
saa(lp266
S'12-02-2020 (01:30:37.628806)'
p267
a(dp268
g6
I13256851456
sg7
I2857152512
sg8
I7500783616
sg9
F20.2
sg10
I6261800960
sg11
I4021125120
sg12
I5479038976
sg13
I163172352
sg14
I16619749376
sg15
I627486720
sg16
I12288
saa(lp269
S'12-02-2020 (01:57:30.687881)'
p270
a(dp271
g6
I13232758784
sg7
I2881236992
sg8
I9393315840
sg9
F20.4
sg10
I4345184256
sg11
I5432000512
sg12
I5963698176
sg13
I163180544
sg14
I16619749376
sg15
I650285056
sg16
I12288
saa(lp272
S'12-02-2020 (02:25:14.729823)'
p273
a(dp274
g6
I13240451072
sg7
I2873544704
sg8
I11128315904
sg9
F20.3
sg10
I2617876480
sg11
I6728351744
sg12
I6367690752
sg13
I163180544
sg14
I16619749376
sg15
I676208640
sg16
I12288
saa(lp275
S'12-02-2020 (02:52:56.301106)'
p276
a(dp277
g6
I13245820928
sg7
I2868314112
sg8
I13593133056
sg9
F20.3
sg10
I158289920
sg11
I7716335616
sg12
I7815172096
sg13
I163180544
sg14
I16619749376
sg15
I700002304
sg16
I12288
saa(lp278
S'12-02-2020 (03:22:42.094853)'
p279
a(dp280
g6
I13233987584
sg7
I2879950848
sg8
I12866609152
sg9
F20.4
sg10
I873177088
sg11
I7572537344
sg12
I7220322304
sg13
I163237888
sg14
I16619749376
sg15
I723595264
sg16
I12288
saa(lp281
S'12-02-2020 (03:50:30.163009)'
p282
a(dp283
g6
I13141303296
sg7
I2972631040
sg8
I13288939520
sg9
F20.9
sg10
I358158336
sg11
I7123648512
sg12
I8030195712
sg13
I163237888
sg14
I16619749376
sg15
I780611584
sg16
I20480
saa(lp284
S'12-02-2020 (04:17:42.795799)'
p285
a(dp286
g6
I13158793216
sg7
I2955198464
sg8
I13433335808
sg9
F20.8
sg10
I231194624
sg11
I7824056320
sg12
I7443193856
sg13
I163184640
sg14
I16619749376
sg15
I796016640
sg16
I20480
saa(lp287
S'12-02-2020 (04:45:11.263900)'
p288
a(dp289
g6
I13132853248
sg7
I2981326848
sg8
I13379883008
sg9
F21.0
sg10
I258519040
sg11
I7166054400
sg12
I8092889088
sg13
I162873344
sg14
I16619749376
sg15
I764579840
sg16
I20480
saa(lp290
S'12-02-2020 (05:13:55.365867)'
p291
a(dp292
g6
I13174771712
sg7
I2943942656
sg8
I9303101440
sg9
F20.7
sg10
I4372692992
sg11
I5092356096
sg12
I6196547584
sg13
I158302208
sg14
I16619749376
sg15
I651730944
sg16
I12288
saa(lp293
S'12-02-2020 (05:44:18.331425)'
p294
a(dp295
g6
I13165146112
sg7
I2945339392
sg8
I11689246720
sg9
F20.8
sg10
I1985150976
sg11
I6981455872
sg12
I6667100160
sg13
I166690816
sg14
I16619749376
sg15
I677412864
sg16
I12288
saa(lp296
S'12-02-2020 (06:11:12.300991)'
p297
a(dp298
g6
I13160271872
sg7
I2950209536
sg8
I13278007296
sg9
F20.8
sg10
I391520256
sg11
I8148451328
sg12
I7067324416
sg13
I166694912
sg14
I16619749376
sg15
I704827392
sg16
I12288
saa(lp299
S'12-02-2020 (06:38:29.443957)'
p300
a(dp301
g6
I13190660096
sg7
I2920071168
sg8
I13444628480
sg9
F20.6
sg10
I255037440
sg11
I7557529600
sg12
I7783276544
sg13
I166445056
sg14
I16619749376
sg15
I720023552
sg16
I12288
saa(lp302
S'12-02-2020 (07:05:23.413852)'
p303
a(dp304
g6
I13184032768
sg7
I2927656960
sg8
I12684611584
sg9
F20.7
sg10
I1007468544
sg11
I7346036736
sg12
I7235112960
sg13
I165486592
sg14
I16619749376
sg15
I730816512
sg16
I12288
saa(lp305
S'12-02-2020 (07:33:47.288422)'
p306
a(dp307
g6
I13214720000
sg7
I2897338368
sg8
I13505372160
sg9
F20.5
sg10
I217026560
sg11
I7292981248
sg12
I8160878592
sg13
I164188160
sg14
I16619749376
sg15
I663703552
sg16
I12288
saa(lp308
S'12-02-2020 (08:02:07.038977)'
p309
a(dp310
g6
I13226414080
sg7
I2888237056
sg8
I8698748928
sg9
F20.4
sg10
I5032751104
sg11
I4903813120
sg12
I5772369920
sg13
I162525184
sg14
I16619749376
sg15
I645259264
sg16
I12288
saa(lp311
S'12-02-2020 (08:30:37.974995)'
p312
a(dp313
g6
I13243654144
sg7
I2870996992
sg8
I10191921152
sg9
F20.3
sg10
I3556818944
sg11
I6021455872
sg12
I6106279936
sg13
I162525184
sg14
I16619749376
sg15
I668344320
sg16
I12288
saas.