(dp0
S'memory_usage'
p1
(lp2
(lp3
S'26-02-2020 (21:46:39.374886)'
p4
a(dp5
S'available'
p6
I13277007872
sS'used'
p7
I2812575744
sS'cached'
p8
I13442105344
sS'percent'
p9
F20.1
sS'free'
p10
I365047808
sS'inactive'
p11
I6711058432
sS'active'
p12
I8264998912
sS'shared'
p13
I187592704
sS'total'
p14
I16619749376
sS'slab'
p15
I931737600
sS'buffers'
p16
I20480
saa(lp17
S'26-02-2020 (21:47:12.274759)'
p18
a(dp19
g6
I13265506304
sg7
I2823950336
sg8
I13477634048
sg9
F20.2
sg10
I318144512
sg11
I6678982656
sg12
I8345051136
sg13
I187592704
sg14
I16619749376
sg15
I931741696
sg16
I20480
saa(lp20
S'26-02-2020 (21:47:45.625682)'
p21
a(dp22
g6
I13266255872
sg7
I2823290880
sg8
I13552480256
sg9
F20.2
sg10
I243957760
sg11
I6686855168
sg12
I8412180480
sg13
I187592704
sg14
I16619749376
sg15
I931807232
sg16
I20480
saas.