(dp0
S'memory_usage'
p1
(lp2
(lp3
S'20-03-2020 (13:46:23.120955)'
p4
a(dp5
S'available'
p6
I6663176192
sS'used'
p7
I9389707264
sS'cached'
p8
I5572456448
sS'percent'
p9
F59.9
sS'free'
p10
I1657565184
sS'inactive'
p11
I3732074496
sS'active'
p12
I10173497344
sS'shared'
p13
I224292864
sS'total'
p14
I16619749376
sS'slab'
p15
I749408256
sS'buffers'
p16
I20480
saa(lp17
S'20-03-2020 (13:59:43.864569)'
p18
a(dp19
g6
I6562148352
sg7
I9490722816
sg8
I6641078272
sg9
F60.5
sg10
I487927808
sg11
I4765540352
sg12
I10282860544
sg13
I224292864
sg14
I16619749376
sg15
I776208384
sg16
I20480
saa(lp20
S'20-03-2020 (14:20:00.605428)'
p21
a(dp22
g6
I6623334400
sg7
I9429573632
sg8
I6924541952
sg9
F60.1
sg10
I265613312
sg11
I5026918400
sg12
I10231312384
sg13
I224292864
sg14
I16619749376
sg15
I791199744
sg16
I20480
saa(lp23
S'20-03-2020 (14:49:30.660770)'
p24
a(dp25
g6
I6623531008
sg7
I9429352448
sg8
I6791708672
sg9
F60.1
sg10
I398675968
sg11
I5082595328
sg12
I10044411904
sg13
I224292864
sg14
I16619749376
sg15
I789463040
sg16
I12288
saa(lp26
S'20-03-2020 (15:28:33.532941)'
p27
a(dp28
g6
I6630948864
sg7
I9421950976
sg8
I6939217920
sg9
F60.1
sg10
I258568192
sg11
I5198352384
sg12
I10070716416
sg13
I224260096
sg14
I16619749376
sg15
I787824640
sg16
I12288
saa(lp29
S'20-03-2020 (16:17:14.753731)'
p30
a(dp31
g6
I6635630592
sg7
I9417244672
sg8
I6814199808
sg9
F60.1
sg10
I388292608
sg11
I5039214592
sg12
I10100830208
sg13
I224292864
sg14
I16619749376
sg15
I786792448
sg16
I12288
saa(lp32
S'20-03-2020 (17:14:24.541994)'
p33
a(dp34
g6
I6633988096
sg7
I9418878976
sg8
I6941708288
sg9
F60.1
sg10
I259149824
sg11
I5135118336
sg12
I10138394624
sg13
I224292864
sg14
I16619749376
sg15
I783405056
sg16
I12288
saa(lp35
S'20-03-2020 (18:24:41.267325)'
p36
a(dp37
g6
I6628253696
sg7
I9424629760
sg8
I6936027136
sg9
F60.1
sg10
I259080192
sg11
I5093810176
sg12
I10180055040
sg13
I224292864
sg14
I16619749376
sg15
I782098432
sg16
I12288
saa(lp38
S'20-03-2020 (19:43:52.216097)'
p39
a(dp40
g6
I6619234304
sg7
I9425223680
sg8
I6993879040
sg9
F60.2
sg10
I200634368
sg11
I5095587840
sg12
I10239197184
sg13
I232681472
sg14
I16619749376
sg15
I780341248
sg16
I12288
saa(lp41
S'20-03-2020 (21:13:18.360999)'
p42
a(dp43
g6
I6691520512
sg7
I9352970240
sg8
I6948339712
sg9
F59.7
sg10
I318427136
sg11
I5249982464
sg12
I9966612480
sg13
I232681472
sg14
I16619749376
sg15
I780845056
sg16
I12288
saa(lp44
S'20-03-2020 (22:51:28.163831)'
p45
a(dp46
g6
I6705156096
sg7
I9339338752
sg8
I7047348224
sg9
F59.7
sg10
I233050112
sg11
I5283700736
sg12
I10017685504
sg13
I232681472
sg14
I16619749376
sg15
I782254080
sg16
I12288
saa(lp47
S'21-03-2020 (00:44:55.221472)'
p48
a(dp49
g6
I6726782976
sg7
I9317711872
sg8
I6931963904
sg9
F59.5
sg10
I370061312
sg11
I5096689664
sg12
I10065436672
sg13
I232681472
sg14
I16619749376
sg15
I782983168
sg16
I12288
saa(lp50
S'21-03-2020 (02:49:25.167024)'
p51
a(dp52
g6
I6729256960
sg7
I9315237888
sg8
I6778990592
sg9
F59.5
sg10
I525508608
sg11
I4875366400
sg12
I10134134784
sg13
I232681472
sg14
I16619749376
sg15
I781594624
sg16
I12288
saa(lp53
S'21-03-2020 (05:03:01.446977)'
p54
a(dp55
g6
I6744846336
sg7
I9299644416
sg8
I6747127808
sg9
F59.4
sg10
I572956672
sg11
I4769894400
sg12
I10189803520
sg13
I232681472
sg14
I16619749376
sg15
I781602816
sg16
I20480
saa(lp56
S'21-03-2020 (07:28:34.201500)'
p57
a(dp58
g6
I6766170112
sg7
I9278316544
sg8
I6532231168
sg9
F59.3
sg10
I809181184
sg11
I4484669440
sg12
I10238205952
sg13
I232681472
sg14
I16619749376
sg15
I782086144
sg16
I20480
saa(lp59
S'21-03-2020 (10:04:49.993925)'
p60
a(dp61
g6
I6790414336
sg7
I9253683200
sg8
I6656741376
sg9
F59.1
sg10
I709304320
sg11
I4517761024
sg12
I10305564672
sg13
I232681472
sg14
I16619749376
sg15
I781516800
sg16
I20480
saa(lp62
S'21-03-2020 (12:51:58.796885)'
p63
a(dp64
g6
I6788964352
sg7
I9255587840
sg8
I7169519616
sg9
F59.2
sg10
I194621440
sg11
I4471779328
sg12
I10866495488
sg13
I232620032
sg14
I16619749376
sg15
I777768960
sg16
I20480
saa(lp65
S'21-03-2020 (15:52:14.333767)'
p66
a(dp67
g6
I6703972352
sg7
I9341296640
sg8
I6333714432
sg9
F59.7
sg10
I944717824
sg11
I4118622208
sg12
I10351075328
sg13
I231899136
sg14
I16619749376
sg15
I870678528
sg16
I20480
saa(lp68
S'21-03-2020 (18:57:59.960977)'
p69
a(dp70
g6
I6724210688
sg7
I9321041920
sg8
I7135019008
sg9
F59.5
sg10
I163667968
sg11
I4832268288
sg12
I10418704384
sg13
I231899136
sg14
I16619749376
sg15
I868618240
sg16
I20480
saa(lp71
S'21-03-2020 (22:20:38.018931)'
p72
a(dp73
g6
I6779691008
sg7
I9265577984
sg8
I7191670784
sg9
F59.2
sg10
I162488320
sg11
I7545729024
sg12
I8223039488
sg13
I231907328
sg14
I16619749376
sg15
I435093504
sg16
I12288
saas.